target datalayout = "e-m:e-p270:32:32-p271:32:32-p272:64:64-i64:64-i128:128-f80:128-n8:16:32:64-S128"
target triple = "x86_64-pc-linux-gnu"

%union.int_mv = type { i32 }
%struct.macroblockd_plane = type { i8, i32, i32, %struct.buf_2d, [2 x %struct.buf_2d], ptr, ptr, [8 x [2 x i16]], ptr, i8, i8, [8 x [19 x ptr]], [8 x [19 x ptr]] }
%struct.buf_2d = type { ptr, ptr, i32, i32, i32 }
%struct.macroblockd = type { i32, i32, i32, i8, [3 x %struct.macroblockd_plane], %struct.TileInfo, ptr, i8, i8, i8, i8, ptr, ptr, ptr, ptr, ptr, i32, i32, i32, i32, i32, [2 x ptr], ptr, [3 x ptr], [3 x [32 x i8]], ptr, [32 x i8], ptr, ptr, [32 x i8], [3 x %struct.WienerInfo], [3 x %struct.SgrprojInfo], i8, i8, [29 x [8 x %struct.candidate_mv]], [29 x [8 x i16]], i8, i8, [8 x i8], ptr, i32, [8 x i32], [8 x i32], i32, i32, ptr, ptr, i8, [4 x i8], [4 x i8], [7 x i8], [32768 x i8], %struct.cfl_ctx, [2 x i16], ptr, [2 x ptr] }
%struct.TileInfo = type { i32, i32, i32, i32, i32, i32 }
%struct.WienerInfo = type { [8 x i16], [8 x i16] }
%struct.SgrprojInfo = type { i32, [2 x i32] }
%struct.candidate_mv = type { %union.int_mv, %union.int_mv }
%struct.cfl_ctx = type { [1024 x i16], [1024 x i16], [2 x i32], i32, [2 x [32 x i16]], i32, i32, i32, i32, i32, i32 }

@mi_size_wide = internal constant [22 x i8] c"\01\01\02\02\02\04\04\04\08\08\08\10\10\10  \01\04\02\08\04\10", align 16
@mi_size_high = internal constant [22 x i8] c"\01\02\01\02\04\02\04\08\04\08\10\08\10 \10 \04\01\08\02\10\04", align 16

; Function Attrs: nounwind uwtable
define internal zeroext i8 @get_plane_block_size(i8 noundef zeroext %0, i32 noundef %1, i32 noundef %2) #0 {
  %4 = alloca i8, align 1
  %5 = alloca i32, align 4
  %6 = alloca i32, align 4
  store i8 %0, ptr %4, align 1
  store i32 %1, ptr %5, align 4
  store i32 %2, ptr %6, align 4
  %7 = load i8, ptr %4, align 1
  %8 = zext i8 %7 to i64
  %9 = getelementptr inbounds [22 x [2 x [2 x i8]]], ptr @ss_size_lookup, i64 0, i64 %8
  %10 = load i32, ptr %5, align 4
  %11 = sext i32 %10 to i64
  %12 = getelementptr inbounds [2 x [2 x i8]], ptr %9, i64 0, i64 %11
  %13 = load i32, ptr %6, align 4
  %14 = sext i32 %13 to i64
  %15 = getelementptr inbounds [2 x i8], ptr %12, i64 0, i64 %14
  %16 = load i8, ptr %15, align 1
  ret i8 %16
}

; Function Attrs: nounwind uwtable
define hidden void @av1_reset_entropy_context(ptr noundef %0, i8 noundef zeroext %1, i32 noundef %2) #0 {
  %4 = alloca ptr, align 8
  %5 = alloca i8, align 1
  %6 = alloca i32, align 4
  %7 = alloca i32, align 4
  %8 = alloca i32, align 4
  %9 = alloca ptr, align 8
  %10 = alloca i8, align 1
  %11 = alloca i32, align 4
  %12 = alloca i32, align 4
  store ptr %0, ptr %4, align 8
  store i8 %1, ptr %5, align 1
  store i32 %2, ptr %6, align 4
  %13 = load i32, ptr %6, align 4
  %14 = sub nsw i32 %13, 1
  %15 = load ptr, ptr %4, align 8
  %16 = getelementptr inbounds nuw %struct.macroblockd, ptr %15, i32 0, i32 3
  %17 = load i8, ptr %16, align 4
  %18 = trunc i8 %17 to i1
  %19 = zext i1 %18 to i32
  %20 = mul nsw i32 %14, %19
  %21 = add nsw i32 1, %20
  store i32 %21, ptr %7, align 4
  store i32 0, ptr %8, align 4
  br label %22

22:                                               ; preds = %62, %3
  %23 = load i32, ptr %8, align 4
  %24 = load i32, ptr %7, align 4
  %25 = icmp slt i32 %23, %24
  br i1 %25, label %26, label %65

26:                                               ; preds = %22
  %27 = load ptr, ptr %4, align 8
  %28 = getelementptr inbounds nuw %struct.macroblockd, ptr %27, i32 0, i32 4
  %29 = load i32, ptr %8, align 4
  %30 = sext i32 %29 to i64
  %31 = getelementptr inbounds [3 x %struct.macroblockd_plane], ptr %28, i64 0, i64 %30
  store ptr %31, ptr %9, align 8
  %32 = load i8, ptr %5, align 1
  %33 = load ptr, ptr %9, align 8
  %34 = getelementptr inbounds nuw %struct.macroblockd_plane, ptr %33, i32 0, i32 1
  %35 = load i32, ptr %34, align 4
  %36 = load ptr, ptr %9, align 8
  %37 = getelementptr inbounds nuw %struct.macroblockd_plane, ptr %36, i32 0, i32 2
  %38 = load i32, ptr %37, align 8
  %39 = call zeroext i8 @get_plane_block_size(i8 noundef zeroext %32, i32 noundef %35, i32 noundef %38)
  store i8 %39, ptr %10, align 1
  %40 = load i8, ptr %10, align 1
  %41 = zext i8 %40 to i64
  %42 = getelementptr inbounds [22 x i8], ptr @mi_size_wide, i64 0, i64 %41
  %43 = load i8, ptr %42, align 1
  %44 = zext i8 %43 to i32
  store i32 %44, ptr %11, align 4
  %45 = load i8, ptr %10, align 1
  %46 = zext i8 %45 to i64
  %47 = getelementptr inbounds [22 x i8], ptr @mi_size_high, i64 0, i64 %46
  %48 = load i8, ptr %47, align 1
  %49 = zext i8 %48 to i32
  store i32 %49, ptr %12, align 4
  %50 = load ptr, ptr %9, align 8
  %51 = getelementptr inbounds nuw %struct.macroblockd_plane, ptr %50, i32 0, i32 5
  %52 = load ptr, ptr %51, align 8
  %53 = load i32, ptr %11, align 4
  %54 = sext i32 %53 to i64
  %55 = mul i64 1, %54
  call void @llvm.memset.p0.i64(ptr align 1 %52, i8 0, i64 %55, i1 false)
  %56 = load ptr, ptr %9, align 8
  %57 = getelementptr inbounds nuw %struct.macroblockd_plane, ptr %56, i32 0, i32 6
  %58 = load ptr, ptr %57, align 8
  %59 = load i32, ptr %12, align 4
  %60 = sext i32 %59 to i64
  %61 = mul i64 1, %60
  call void @llvm.memset.p0.i64(ptr align 1 %58, i8 0, i64 %61, i1 false)
  br label %62

62:                                               ; preds = %26
  %63 = load i32, ptr %8, align 4
  %64 = add nsw i32 %63, 1
  store i32 %64, ptr %8, align 4
  br label %22, !llvm.loop !4

65:                                               ; preds = %22
  ret void
}