; Function Attrs: nofree norecurse nosync nounwind memory(write, argmem: readwrite, inaccessiblemem: none) uwtable
define hidden void @av1_reset_entropy_context(ptr nocapture noundef readonly %0, i8 noundef zeroext %1, i32 noundef %2) local_unnamed_addr #3 {
  %4 = add nsw i32 %2, -1
  %5 = getelementptr inbounds nuw i8, ptr %0, i64 12
  %6 = load i8, ptr %5, align 4
  %7 = and i8 %6, 1
  %8 = zext nneg i8 %7 to i32
  %9 = mul nuw nsw i32 %4, %8
  %.not15 = icmp slt i32 %9, 0
  br i1 %.not15, label %._crit_edge, label %.lr.ph

.lr.ph:                                           ; preds = %3
  %10 = getelementptr inbounds nuw i8, ptr %0, i64 16
  %11 = zext i8 %1 to i64
  %12 = add nuw nsw i32 %9, 1
  %wide.trip.count = zext nneg i32 %12 to i64
  br label %13

13:                                               ; preds = %.lr.ph, %13
  %indvars.iv = phi i64 [ 0, %.lr.ph ], [ %indvars.iv.next, %13 ]
  %14 = getelementptr inbounds [3 x %struct.macroblockd_plane], ptr %10, i64 0, i64 %indvars.iv
  %15 = getelementptr inbounds nuw i8, ptr %14, i64 4
  %16 = load i32, ptr %15, align 4
  %17 = getelementptr inbounds nuw i8, ptr %14, i64 8
  %18 = load i32, ptr %17, align 8
  %19 = sext i32 %16 to i64
  %20 = sext i32 %18 to i64
  %21 = getelementptr inbounds [22 x [2 x [2 x i8]]], ptr @ss_size_lookup, i64 0, i64 %11, i64 %19, i64 %20
  %22 = load i8, ptr %21, align 1
  %23 = zext i8 %22 to i64
  %24 = getelementptr inbounds [22 x i8], ptr @mi_size_wide, i64 0, i64 %23
  %25 = load i8, ptr %24, align 1
  %26 = getelementptr inbounds [22 x i8], ptr @mi_size_high, i64 0, i64 %23
  %27 = load i8, ptr %26, align 1
  %28 = getelementptr inbounds nuw i8, ptr %14, i64 112
  %29 = load ptr, ptr %28, align 8
  %30 = zext i8 %25 to i64
  tail call void @llvm.memset.p0.i64(ptr align 1 %29, i8 0, i64 %30, i1 false)
  %31 = getelementptr inbounds nuw i8, ptr %14, i64 120
  %32 = load ptr, ptr %31, align 8
  %33 = zext i8 %27 to i64
  tail call void @llvm.memset.p0.i64(ptr align 1 %32, i8 0, i64 %33, i1 false)
  %indvars.iv.next = add nuw nsw i64 %indvars.iv, 1
  %exitcond.not = icmp eq i64 %indvars.iv.next, %wide.trip.count
  br i1 %exitcond.not, label %._crit_edge, label %13, !llvm.loop !4

._crit_edge:                                      ; preds = %13, %3
  ret void
}